; Function Attrs: mustprogress uwtable
define hidden noundef ptr @_ZNK11func_interp4copyEv(ptr nocapture noundef nonnull readonly align 8 dereferenceable(56) %this) local_unnamed_addr #3 align 2 {
entry:
  %call = tail call noalias noundef ptr @_ZN6memory8allocateEm(i64 noundef 56)
  %0 = load ptr, ptr %this, align 8
  %m_arity = getelementptr inbounds i8, ptr %this, i64 8
  %1 = load i32, ptr %m_arity, align 8
  store ptr %0, ptr %call, align 8
  %m_arity.i = getelementptr inbounds i8, ptr %call, i64 8
  store i32 %1, ptr %m_arity.i, align 8
  %m_entries.i = getelementptr inbounds i8, ptr %call, i64 16
  %m_args_are_values.i = getelementptr inbounds i8, ptr %call, i64 32
  tail call void @llvm.memset.p0.i64(ptr noundef nonnull align 8 dereferenceable(16) %m_entries.i, i8 0, i64 16, i1 false)
  store i8 1, ptr %m_args_are_values.i, align 8
  %m_interp.i = getelementptr inbounds i8, ptr %call, i64 40
  tail call void @llvm.memset.p0.i64(ptr noundef nonnull align 8 dereferenceable(16) %m_interp.i, i8 0, i64 16, i1 false)
  %m_entries = getelementptr inbounds i8, ptr %this, i64 16
  %2 = load ptr, ptr %m_entries, align 8
  %cmp.i.i = icmp eq ptr %2, null
  br i1 %cmp.i.i, label %for.end, label %_ZNK6vectorIP10func_entryLb0EjE3endEv.exit

_ZNK6vectorIP10func_entryLb0EjE3endEv.exit:       ; preds = %entry
  %arrayidx.i.i = getelementptr inbounds i8, ptr %2, i64 -4
  %3 = load i32, ptr %arrayidx.i.i, align 4
  %4 = zext i32 %3 to i64
  %add.ptr.i = getelementptr inbounds ptr, ptr %2, i64 %4
  %cmp.not7 = icmp eq i32 %3, 0
  br i1 %cmp.not7, label %for.end, label %for.body

for.body:                                         ; preds = %_ZNK6vectorIP10func_entryLb0EjE3endEv.exit, %for.body
  %__begin1.08 = phi ptr [ %incdec.ptr, %for.body ], [ %2, %_ZNK6vectorIP10func_entryLb0EjE3endEv.exit ]
  %5 = load ptr, ptr %__begin1.08, align 8
  %m_args.i = getelementptr inbounds i8, ptr %5, i64 16
  %m_result.i = getelementptr inbounds i8, ptr %5, i64 8
  %6 = load ptr, ptr %m_result.i, align 8
  tail call void @_ZN11func_interp16insert_new_entryEPKP4exprS1_(ptr noundef nonnull align 8 dereferenceable(56) %call, ptr noundef nonnull %m_args.i, ptr noundef %6)
  %incdec.ptr = getelementptr inbounds i8, ptr %__begin1.08, i64 8
  %cmp.not = icmp eq ptr %incdec.ptr, %add.ptr.i
  br i1 %cmp.not, label %for.end, label %for.body

for.end:                                          ; preds = %for.body, %entry, %_ZNK6vectorIP10func_entryLb0EjE3endEv.exit
  %m_else = getelementptr inbounds i8, ptr %this, i64 24
  %7 = load ptr, ptr %m_else, align 8
  tail call void @_ZN11func_interp8set_elseEP4expr(ptr noundef nonnull align 8 dereferenceable(56) %call, ptr noundef %7)
  ret ptr %call
}